target datalayout = "e-m:e-p270:32:32-p271:32:32-p272:64:64-i64:64-i128:128-f80:128-n8:16:32:64-S128"
target triple = "x86_64-pc-linux-gnu"

%struct.ForEachState = type { ptr, i32 }
%struct.List = type { i32, i32, i32, ptr, [0 x %union.ListCell] }
%union.ListCell = type { ptr }
%struct.pg_atomic_uint32 = type { i32 }
%union.LWLockPadded = type { %struct.LWLock, [112 x i8] }
%struct.LWLock = type { i16, %struct.pg_atomic_uint32, %struct.proclist_head }
%struct.proclist_head = type { i32, i32 }

@on_commit_wakeup_workers_subids = internal global ptr null, align 8
@MainLWLockArray = external global ptr, align 8

; Function Attrs: nounwind uwtable
define dso_local void @AtEOXact_LogicalRepWorkers(i1 noundef zeroext %0) #0 {
  %2 = alloca i8, align 1
  %3 = alloca ptr, align 8
  %4 = alloca %struct.ForEachState, align 8
  %5 = alloca i32, align 4
  %6 = alloca i32, align 4
  %7 = alloca ptr, align 8
  %8 = alloca ptr, align 8
  %9 = alloca %struct.ForEachState, align 8
  %10 = alloca ptr, align 8
  %11 = zext i1 %0 to i8
  store i8 %11, ptr %2, align 1
  %12 = load i8, ptr %2, align 1, !range !4, !noundef !5
  %13 = trunc i8 %12 to i1
  br i1 %13, label %14, label %102

14:                                               ; preds = %1
  %15 = load ptr, ptr @on_commit_wakeup_workers_subids, align 8
  %16 = icmp ne ptr %15, null
  br i1 %16, label %17, label %102

17:                                               ; preds = %14
  call void @llvm.lifetime.start.p0(i64 8, ptr %3) #12
  %18 = load ptr, ptr @MainLWLockArray, align 8
  %19 = getelementptr inbounds %union.LWLockPadded, ptr %18, i64 43
  %20 = call zeroext i1 @LWLockAcquire(ptr noundef %19, i32 noundef 1)
  call void @llvm.lifetime.start.p0(i64 16, ptr %4) #12
  %21 = getelementptr inbounds nuw %struct.ForEachState, ptr %4, i32 0, i32 0
  %22 = load ptr, ptr @on_commit_wakeup_workers_subids, align 8
  store ptr %22, ptr %21, align 8
  %23 = getelementptr inbounds nuw %struct.ForEachState, ptr %4, i32 0, i32 1
  store i32 0, ptr %23, align 8
  %24 = getelementptr i8, ptr %4, i64 12
  call void @llvm.memset.p0.i64(ptr align 4 %24, i8 0, i64 4, i1 false)
  br label %25

25:                                               ; preds = %95, %17
  %26 = getelementptr inbounds nuw %struct.ForEachState, ptr %4, i32 0, i32 0
  %27 = load ptr, ptr %26, align 8
  %28 = icmp ne ptr %27, null
  br i1 %28, label %29, label %46

29:                                               ; preds = %25
  %30 = getelementptr inbounds nuw %struct.ForEachState, ptr %4, i32 0, i32 1
  %31 = load i32, ptr %30, align 8
  %32 = getelementptr inbounds nuw %struct.ForEachState, ptr %4, i32 0, i32 0
  %33 = load ptr, ptr %32, align 8
  %34 = getelementptr inbounds nuw %struct.List, ptr %33, i32 0, i32 1
  %35 = load i32, ptr %34, align 4
  %36 = icmp slt i32 %31, %35
  br i1 %36, label %37, label %46

37:                                               ; preds = %29
  %38 = getelementptr inbounds nuw %struct.ForEachState, ptr %4, i32 0, i32 0
  %39 = load ptr, ptr %38, align 8
  %40 = getelementptr inbounds nuw %struct.List, ptr %39, i32 0, i32 3
  %41 = load ptr, ptr %40, align 8
  %42 = getelementptr inbounds nuw %struct.ForEachState, ptr %4, i32 0, i32 1
  %43 = load i32, ptr %42, align 8
  %44 = sext i32 %43 to i64
  %45 = getelementptr inbounds %union.ListCell, ptr %41, i64 %44
  store ptr %45, ptr %3, align 8
  br label %47

46:                                               ; preds = %29, %25
  store ptr null, ptr %3, align 8
  br label %47

47:                                               ; preds = %46, %37
  %48 = phi i32 [ 1, %37 ], [ 0, %46 ]
  %49 = icmp ne i32 %48, 0
  br i1 %49, label %51, label %50

50:                                               ; preds = %47
  store i32 2, ptr %5, align 4
  call void @llvm.lifetime.end.p0(i64 16, ptr %4) #12
  br label %99

51:                                               ; preds = %47
  call void @llvm.lifetime.start.p0(i64 4, ptr %6) #12
  %52 = load ptr, ptr %3, align 8
  %53 = load i32, ptr %52, align 8
  store i32 %53, ptr %6, align 4
  call void @llvm.lifetime.start.p0(i64 8, ptr %7) #12
  call void @llvm.lifetime.start.p0(i64 8, ptr %8) #12
  %54 = load i32, ptr %6, align 4
  %55 = call ptr @logicalrep_workers_find(i32 noundef %54, i1 noundef zeroext true, i1 noundef zeroext false)
  store ptr %55, ptr %7, align 8
  call void @llvm.lifetime.start.p0(i64 16, ptr %9) #12
  %56 = getelementptr inbounds nuw %struct.ForEachState, ptr %9, i32 0, i32 0
  %57 = load ptr, ptr %7, align 8
  store ptr %57, ptr %56, align 8
  %58 = getelementptr inbounds nuw %struct.ForEachState, ptr %9, i32 0, i32 1
  store i32 0, ptr %58, align 8
  %59 = getelementptr i8, ptr %9, i64 12
  call void @llvm.memset.p0.i64(ptr align 4 %59, i8 0, i64 4, i1 false)
  br label %60

60:                                               ; preds = %90, %51
  %61 = getelementptr inbounds nuw %struct.ForEachState, ptr %9, i32 0, i32 0
  %62 = load ptr, ptr %61, align 8
  %63 = icmp ne ptr %62, null
  br i1 %63, label %64, label %81

64:                                               ; preds = %60
  %65 = getelementptr inbounds nuw %struct.ForEachState, ptr %9, i32 0, i32 1
  %66 = load i32, ptr %65, align 8
  %67 = getelementptr inbounds nuw %struct.ForEachState, ptr %9, i32 0, i32 0
  %68 = load ptr, ptr %67, align 8
  %69 = getelementptr inbounds nuw %struct.List, ptr %68, i32 0, i32 1
  %70 = load i32, ptr %69, align 4
  %71 = icmp slt i32 %66, %70
  br i1 %71, label %72, label %81

72:                                               ; preds = %64
  %73 = getelementptr inbounds nuw %struct.ForEachState, ptr %9, i32 0, i32 0
  %74 = load ptr, ptr %73, align 8
  %75 = getelementptr inbounds nuw %struct.List, ptr %74, i32 0, i32 3
  %76 = load ptr, ptr %75, align 8
  %77 = getelementptr inbounds nuw %struct.ForEachState, ptr %9, i32 0, i32 1
  %78 = load i32, ptr %77, align 8
  %79 = sext i32 %78 to i64
  %80 = getelementptr inbounds %union.ListCell, ptr %76, i64 %79
  store ptr %80, ptr %8, align 8
  br label %82

81:                                               ; preds = %64, %60
  store ptr null, ptr %8, align 8
  br label %82

82:                                               ; preds = %81, %72
  %83 = phi i32 [ 1, %72 ], [ 0, %81 ]
  %84 = icmp ne i32 %83, 0
  br i1 %84, label %86, label %85

85:                                               ; preds = %82
  store i32 5, ptr %5, align 4
  call void @llvm.lifetime.end.p0(i64 16, ptr %9) #12
  br label %94

86:                                               ; preds = %82
  call void @llvm.lifetime.start.p0(i64 8, ptr %10) #12
  %87 = load ptr, ptr %8, align 8
  %88 = load ptr, ptr %87, align 8
  store ptr %88, ptr %10, align 8
  %89 = load ptr, ptr %10, align 8
  call void @logicalrep_worker_wakeup_ptr(ptr noundef %89)
  call void @llvm.lifetime.end.p0(i64 8, ptr %10) #12
  br label %90

90:                                               ; preds = %86
  %91 = getelementptr inbounds nuw %struct.ForEachState, ptr %9, i32 0, i32 1
  %92 = load i32, ptr %91, align 8
  %93 = add i32 %92, 1
  store i32 %93, ptr %91, align 8
  br label %60, !llvm.loop !12

94:                                               ; preds = %85
  call void @llvm.lifetime.end.p0(i64 8, ptr %8) #12
  call void @llvm.lifetime.end.p0(i64 8, ptr %7) #12
  call void @llvm.lifetime.end.p0(i64 4, ptr %6) #12
  br label %95

95:                                               ; preds = %94
  %96 = getelementptr inbounds nuw %struct.ForEachState, ptr %4, i32 0, i32 1
  %97 = load i32, ptr %96, align 8
  %98 = add i32 %97, 1
  store i32 %98, ptr %96, align 8
  br label %25, !llvm.loop !13

99:                                               ; preds = %50
  %100 = load ptr, ptr @MainLWLockArray, align 8
  %101 = getelementptr inbounds %union.LWLockPadded, ptr %100, i64 43
  call void @LWLockRelease(ptr noundef %101)
  call void @llvm.lifetime.end.p0(i64 8, ptr %3) #12
  br label %102

102:                                              ; preds = %99, %14, %1
  store ptr null, ptr @on_commit_wakeup_workers_subids, align 8
  ret void
}