; Function Attrs: nounwind uwtable
define dso_local void @AtEOXact_LogicalRepWorkers(i1 noundef zeroext %0) local_unnamed_addr #0 {
  %2 = load ptr, ptr @on_commit_wakeup_workers_subids, align 8
  %3 = icmp ne ptr %2, null
  %or.cond = select i1 %0, i1 %3, i1 false
  br i1 %or.cond, label %4, label %32

4:                                                ; preds = %1
  %5 = load ptr, ptr @MainLWLockArray, align 8
  %6 = getelementptr inbounds nuw i8, ptr %5, i64 5504
  %7 = tail call zeroext i1 @LWLockAcquire(ptr noundef nonnull %6, i32 noundef 1) #17
  %8 = load ptr, ptr @on_commit_wakeup_workers_subids, align 8
  %9 = getelementptr inbounds nuw i8, ptr %8, i64 4
  %.not = icmp eq ptr %8, null
  br i1 %.not, label %._crit_edge36, label %.lr.ph35

.lr.ph35:                                         ; preds = %4
  %10 = getelementptr inbounds nuw i8, ptr %8, i64 16
  %11 = load i32, ptr %9, align 4
  %12 = icmp sgt i32 %11, 0
  br i1 %12, label %.lr.ph41, label %._crit_edge36

._crit_edge36:                                    ; preds = %._crit_edge, %.lr.ph35, %4
  %13 = load ptr, ptr @MainLWLockArray, align 8
  %14 = getelementptr inbounds nuw i8, ptr %13, i64 5504
  tail call void @LWLockRelease(ptr noundef nonnull %14) #17
  br label %32

.lr.ph41:                                         ; preds = %.lr.ph35, %._crit_edge
  %indvars.iv43 = phi i64 [ %indvars.iv.next44, %._crit_edge ], [ 0, %.lr.ph35 ]
  %15 = load ptr, ptr %10, align 8
  %16 = getelementptr inbounds nuw %union.ListCell, ptr %15, i64 %indvars.iv43
  %17 = load i32, ptr %16, align 8
  %18 = tail call ptr @logicalrep_workers_find(i32 noundef %17, i1 noundef zeroext true, i1 noundef zeroext false) #17
  %19 = getelementptr inbounds nuw i8, ptr %18, i64 4
  %.not21 = icmp eq ptr %18, null
  br i1 %.not21, label %._crit_edge, label %.lr.ph

.lr.ph:                                           ; preds = %.lr.ph41
  %20 = getelementptr inbounds nuw i8, ptr %18, i64 16
  %21 = load i32, ptr %19, align 4
  %22 = icmp sgt i32 %21, 0
  br i1 %22, label %.lr.ph32, label %._crit_edge

._crit_edge:                                      ; preds = %.lr.ph32, %.lr.ph, %.lr.ph41
  %indvars.iv.next44 = add nuw nsw i64 %indvars.iv43, 1
  %23 = load i32, ptr %9, align 4
  %24 = sext i32 %23 to i64
  %25 = icmp slt i64 %indvars.iv.next44, %24
  br i1 %25, label %.lr.ph41, label %._crit_edge36

.lr.ph32:                                         ; preds = %.lr.ph, %.lr.ph32
  %indvars.iv = phi i64 [ %indvars.iv.next, %.lr.ph32 ], [ 0, %.lr.ph ]
  %26 = load ptr, ptr %20, align 8
  %27 = getelementptr inbounds nuw %union.ListCell, ptr %26, i64 %indvars.iv
  %28 = load ptr, ptr %27, align 8
  tail call void @logicalrep_worker_wakeup_ptr(ptr noundef %28) #17
  %indvars.iv.next = add nuw nsw i64 %indvars.iv, 1
  %29 = load i32, ptr %19, align 4
  %30 = sext i32 %29 to i64
  %31 = icmp slt i64 %indvars.iv.next, %30
  br i1 %31, label %.lr.ph32, label %._crit_edge

32:                                               ; preds = %._crit_edge36, %1
  store ptr null, ptr @on_commit_wakeup_workers_subids, align 8
  ret void
}